; Function Attrs: nounwind uwtable
define dso_local i32 @reftable_iterator_seek_log_at(ptr noundef readonly captures(none) %0, ptr noundef %1, i64 noundef %2) local_unnamed_addr #0 {
  %4 = alloca %struct.reftable_record, align 8
  call void @llvm.lifetime.start.p0(i64 152, ptr nonnull %4) #10
  call void @llvm.memset.p0.i64(ptr noundef nonnull align 8 dereferenceable(152) %4, i8 0, i64 152, i1 false)
  store i8 103, ptr %4, align 8, !tbaa !37
  %5 = getelementptr inbounds nuw i8, ptr %4, i64 8
  store ptr %1, ptr %5, align 8, !tbaa !45
  %6 = getelementptr inbounds nuw i8, ptr %4, i64 24
  store i64 %2, ptr %6, align 8, !tbaa !47
  %7 = load ptr, ptr %0, align 8, !tbaa !4
  %8 = load ptr, ptr %7, align 8, !tbaa !10
  %9 = getelementptr inbounds nuw i8, ptr %0, i64 8
  %10 = load ptr, ptr %9, align 8, !tbaa !12
  %11 = call i32 %8(ptr noundef %10, ptr noundef nonnull %4) #10
  call void @llvm.lifetime.end.p0(i64 152, ptr nonnull %4) #10
  ret i32 %11
}